; Function Attrs: nounwind uwtable
define internal range(i64 -1, -9223372036854775808) i64 @H5D__compact_writevv(ptr noundef readonly captures(none) %0, ptr noundef readonly captures(none) %1, i64 noundef %2, ptr noundef %3, ptr noundef %4, ptr noundef %5, i64 noundef %6, ptr noundef %7, ptr noundef %8, ptr noundef %9) #0 {
  %11 = alloca %struct.H5D_compact_iovv_memmanage_ud_t, align 8
  %12 = load i8, ptr @H5D_init_g, align 1, !tbaa !3, !range !7, !noundef !8
  %13 = trunc nuw i8 %12 to i1
  %14 = load i8, ptr @H5_libterm_g, align 1, !range !7
  %15 = trunc nuw i8 %14 to i1
  %16 = xor i1 %15, true
  %17 = select i1 %13, i1 true, i1 %16
  br i1 %17, label %18, label %53, !prof !9

18:                                               ; preds = %10
  %19 = load ptr, ptr %0, align 8, !tbaa !72
  %20 = tail call zeroext i1 @H5F_shared_has_feature(ptr noundef %19, i32 noundef 65536) #8
  br i1 %20, label %21, label %36

21:                                               ; preds = %18
  call void @llvm.lifetime.start.p0(i64 24, ptr nonnull %11) #8
  %22 = load ptr, ptr %0, align 8, !tbaa !72
  store ptr %22, ptr %11, align 8, !tbaa !73
  %23 = getelementptr inbounds nuw i8, ptr %1, i64 8
  %24 = load ptr, ptr %23, align 8, !tbaa !62
  %25 = load ptr, ptr %24, align 8, !tbaa !51
  %26 = getelementptr inbounds nuw i8, ptr %11, i64 8
  store ptr %25, ptr %26, align 8, !tbaa !75
  %27 = getelementptr inbounds nuw i8, ptr %1, i64 120
  %28 = load ptr, ptr %27, align 8, !tbaa !51
  %29 = getelementptr inbounds nuw i8, ptr %11, i64 16
  store ptr %28, ptr %29, align 8, !tbaa !76
  %30 = call i64 @H5VM_opvv(i64 noundef %2, ptr noundef %3, ptr noundef %4, ptr noundef %5, i64 noundef %6, ptr noundef %7, ptr noundef %8, ptr noundef %9, ptr noundef nonnull @H5D__compact_iovv_memmanage_cb, ptr noundef nonnull %11) #8
  %31 = icmp slt i64 %30, 0
  br i1 %31, label %32, label %.thread

.thread:                                          ; preds = %21
  call void @llvm.lifetime.end.p0(i64 24, ptr nonnull %11) #8
  br label %48

32:                                               ; preds = %21
  %33 = load i64, ptr @H5E_IO_g, align 8, !tbaa !48
  %34 = load i64, ptr @H5E_WRITEERROR_g, align 8, !tbaa !48
  %35 = call i32 (ptr, ptr, i32, i64, i64, ptr, ...) @H5E_printf_stack(ptr noundef nonnull @.str, ptr noundef nonnull @__func__.H5D__compact_writevv, i32 noundef 446, i64 noundef %33, i64 noundef %34, ptr noundef nonnull @.str.23) #8
  call void @llvm.lifetime.end.p0(i64 24, ptr nonnull %11) #8
  br label %53

36:                                               ; preds = %18
  %37 = getelementptr inbounds nuw i8, ptr %1, i64 8
  %38 = load ptr, ptr %37, align 8, !tbaa !62
  %39 = load ptr, ptr %38, align 8, !tbaa !51
  %40 = getelementptr inbounds nuw i8, ptr %1, i64 120
  %41 = load ptr, ptr %40, align 8, !tbaa !51
  %42 = tail call i64 @H5VM_memcpyvv(ptr noundef %39, i64 noundef %2, ptr noundef %3, ptr noundef %4, ptr noundef %5, ptr noundef %41, i64 noundef %6, ptr noundef %7, ptr noundef %8, ptr noundef %9) #8
  %43 = icmp slt i64 %42, 0
  br i1 %43, label %44, label %48

44:                                               ; preds = %36
  %45 = load i64, ptr @H5E_IO_g, align 8, !tbaa !48
  %46 = load i64, ptr @H5E_WRITEERROR_g, align 8, !tbaa !48
  %47 = tail call i32 (ptr, ptr, i32, i64, i64, ptr, ...) @H5E_printf_stack(ptr noundef nonnull @.str, ptr noundef nonnull @__func__.H5D__compact_writevv, i32 noundef 453, i64 noundef %45, i64 noundef %46, ptr noundef nonnull @.str.23) #8
  br label %53

48:                                               ; preds = %.thread, %36
  %.2 = phi i64 [ %42, %36 ], [ %30, %.thread ]
  %49 = getelementptr inbounds nuw i8, ptr %1, i64 8
  %50 = load ptr, ptr %49, align 8, !tbaa !62
  %51 = getelementptr inbounds nuw i8, ptr %50, i64 8
  %52 = load ptr, ptr %51, align 8, !tbaa !51
  store i8 1, ptr %52, align 1, !tbaa !3
  br label %53

53:                                               ; preds = %32, %10, %48, %44
  %.028 = phi i64 [ -1, %32 ], [ %.2, %48 ], [ -1, %44 ], [ -1, %10 ]
  ret i64 %.028
}